; Function Attrs: nounwind uwtable
define dso_local noalias nonnull ptr @get_progname(ptr noundef %0) local_unnamed_addr #3 {
  br label %2

2:                                                ; preds = %5, %1
  %.06.i = phi ptr [ null, %1 ], [ %.1.i, %5 ]
  %.0.i = phi ptr [ %0, %1 ], [ %6, %5 ]
  %3 = load i8, ptr %.0.i, align 1
  switch i8 %3, label %5 [
    i8 0, label %last_dir_separator.exit
    i8 47, label %4
  ]

4:                                                ; preds = %2
  br label %5

5:                                                ; preds = %4, %2
  %.1.i = phi ptr [ %.0.i, %4 ], [ %.06.i, %2 ]
  %6 = getelementptr inbounds nuw i8, ptr %.0.i, i64 1
  br label %2, !llvm.loop !7

last_dir_separator.exit:                          ; preds = %2
  %.not = icmp eq ptr %.06.i, null
  %7 = getelementptr inbounds nuw i8, ptr %.06.i, i64 1
  %.0 = select i1 %.not, ptr %0, ptr %7
  %8 = tail call noalias ptr @strdup(ptr noundef %.0) #21
  %9 = icmp eq ptr %8, null
  br i1 %9, label %10, label %13

10:                                               ; preds = %last_dir_separator.exit
  %11 = load ptr, ptr @stderr, align 8
  %12 = tail call i32 (ptr, ptr, ...) @pg_fprintf(ptr noundef %11, ptr noundef nonnull @.str.5, ptr noundef %.0) #21
  tail call void @abort() #23
  unreachable

13:                                               ; preds = %last_dir_separator.exit
  ret ptr %8
}